target datalayout = "e-m:e-p270:32:32-p271:32:32-p272:64:64-i64:64-i128:128-f80:128-n8:16:32:64-S128"
target triple = "x86_64-pc-linux-gnu"

%struct.ident_t = type { i32, i32, i32, i32, ptr }
%"struct.SortedTreeNodes::SliceTableData" = type { ptr, ptr, ptr, i32, i32, i32, i32, i32, ptr, ptr, ptr }
%"struct.SortedTreeNodes::_Indices" = type { [4 x i32] }
%"struct.SortedTreeNodes::_Indices.23" = type { [1 x i32] }

@1 = private unnamed_addr constant %struct.ident_t { i32 0, i32 514, i32 0, i32 22, ptr @0 }, align 8

; Function Attrs: noreturn nounwind uwtable
define linkonce_odr hidden void @__clang_call_terminate(ptr noundef %0) #9 comdat {
  %2 = call ptr @__cxa_begin_catch(ptr %0) #3
  call void @_ZSt9terminatev() #27
  unreachable
}

; Function Attrs: mustprogress nounwind uwtable
define linkonce_odr noundef nonnull align 4 dereferenceable(4) ptr @_ZN15SortedTreeNodes8_IndicesILi1EEixEi(ptr noundef nonnull align 4 dereferenceable(4) %0, i32 noundef %1) #4 comdat align 2 {
  %3 = alloca ptr, align 8
  %4 = alloca i32, align 4
  store ptr %0, ptr %3, align 8
  store i32 %1, ptr %4, align 4
  %5 = load ptr, ptr %3, align 8
  %6 = getelementptr inbounds %"struct.SortedTreeNodes::_Indices.23", ptr %5, i32 0, i32 0
  %7 = load i32, ptr %4, align 4
  %8 = sext i32 %7 to i64
  %9 = getelementptr inbounds [1 x i32], ptr %6, i64 0, i64 %8
  ret ptr %9
}

; Function Attrs: mustprogress nounwind uwtable
define linkonce_odr noundef nonnull align 4 dereferenceable(4) ptr @_ZN15SortedTreeNodes8_IndicesILi4EEixEi(ptr noundef nonnull align 4 dereferenceable(16) %0, i32 noundef %1) #4 comdat align 2 {
  %3 = alloca ptr, align 8
  %4 = alloca i32, align 4
  store ptr %0, ptr %3, align 8
  store i32 %1, ptr %4, align 4
  %5 = load ptr, ptr %3, align 8
  %6 = getelementptr inbounds %"struct.SortedTreeNodes::_Indices", ptr %5, i32 0, i32 0
  %7 = load i32, ptr %4, align 4
  %8 = sext i32 %7 to i64
  %9 = getelementptr inbounds [4 x i32], ptr %6, i64 0, i64 %8
  ret ptr %9
}

; Function Attrs: norecurse nounwind uwtable
define internal void @_ZNK15SortedTreeNodes17setSliceTableDataERNS_14SliceTableDataEiii.omp_outlined.11(ptr noalias noundef %0, ptr noalias noundef %1, ptr noundef nonnull align 8 dereferenceable(72) %2) #17 personality ptr @__gxx_personality_v0 {
  %4 = alloca ptr, align 8
  %5 = alloca ptr, align 8
  %6 = alloca ptr, align 8
  %7 = alloca ptr, align 8
  %8 = alloca i32, align 4
  %9 = alloca i32, align 4
  %10 = alloca i32, align 4
  %11 = alloca i32, align 4
  %12 = alloca i32, align 4
  %13 = alloca i32, align 4
  %14 = alloca i32, align 4
  %15 = alloca i32, align 4
  %16 = alloca i32, align 4
  %17 = alloca i32, align 4
  %18 = alloca i32, align 4
  %19 = alloca i32, align 4
  store ptr %0, ptr %4, align 8
  store ptr %1, ptr %5, align 8
  store ptr %2, ptr %6, align 8
  %20 = load ptr, ptr %6, align 8
  store ptr %20, ptr %7, align 8
  %21 = load ptr, ptr %7, align 8
  %22 = getelementptr inbounds %"struct.SortedTreeNodes::SliceTableData", ptr %21, i32 0, i32 7
  %23 = load i32, ptr %22, align 8
  store i32 %23, ptr %9, align 4
  %24 = load i32, ptr %9, align 4
  %25 = sub nsw i32 %24, 0
  %26 = sdiv i32 %25, 1
  %27 = sub nsw i32 %26, 1
  store i32 %27, ptr %10, align 4
  store i32 0, ptr %11, align 4
  %28 = load i32, ptr %9, align 4
  %29 = icmp slt i32 0, %28
  br i1 %29, label %30, label %159

30:                                               ; preds = %3
  store i32 0, ptr %12, align 4
  %31 = load i32, ptr %10, align 4
  store i32 %31, ptr %13, align 4
  store i32 1, ptr %14, align 4
  store i32 0, ptr %15, align 4
  %32 = load ptr, ptr %4, align 8
  %33 = load i32, ptr %32, align 4
  call void @__kmpc_for_static_init_4(ptr @1, i32 %33, i32 34, ptr %15, ptr %12, ptr %13, ptr %14, i32 1, i32 1)
  %34 = load i32, ptr %13, align 4
  %35 = load i32, ptr %10, align 4
  %36 = icmp sgt i32 %34, %35
  br i1 %36, label %37, label %39

37:                                               ; preds = %30
  %38 = load i32, ptr %10, align 4
  br label %41

39:                                               ; preds = %30
  %40 = load i32, ptr %13, align 4
  br label %41

41:                                               ; preds = %39, %37
  %42 = phi i32 [ %38, %37 ], [ %40, %39 ]
  store i32 %42, ptr %13, align 4
  %43 = load i32, ptr %12, align 4
  store i32 %43, ptr %8, align 4
  br label %44

44:                                               ; preds = %152, %41
  %45 = load i32, ptr %8, align 4
  %46 = load i32, ptr %13, align 4
  %47 = icmp sle i32 %45, %46
  br i1 %47, label %48, label %155

48:                                               ; preds = %44
  %49 = load i32, ptr %8, align 4
  %50 = mul nsw i32 %49, 1
  %51 = add nsw i32 0, %50
  store i32 %51, ptr %16, align 4
  store i32 0, ptr %17, align 4
  br label %52

52:                                               ; preds = %81, %48
  %53 = load i32, ptr %17, align 4
  %54 = icmp ult i32 %53, 4
  br i1 %54, label %55, label %84

55:                                               ; preds = %52
  %56 = load ptr, ptr %7, align 8
  %57 = getelementptr inbounds %"struct.SortedTreeNodes::SliceTableData", ptr %56, i32 0, i32 8
  %58 = load ptr, ptr %57, align 8
  %59 = load ptr, ptr %7, align 8
  %60 = getelementptr inbounds %"struct.SortedTreeNodes::SliceTableData", ptr %59, i32 0, i32 0
  %61 = load ptr, ptr %60, align 8
  %62 = load i32, ptr %16, align 4
  %63 = sext i32 %62 to i64
  %64 = getelementptr inbounds %"struct.SortedTreeNodes::_Indices", ptr %61, i64 %63
  %65 = load i32, ptr %17, align 4
  %66 = invoke noundef nonnull align 4 dereferenceable(4) ptr @_ZN15SortedTreeNodes8_IndicesILi4EEixEi(ptr noundef nonnull align 4 dereferenceable(16) %64, i32 noundef %65)
          to label %67 unwind label %160

67:                                               ; preds = %55
  %68 = load i32, ptr %66, align 4
  %69 = sext i32 %68 to i64
  %70 = getelementptr inbounds i32, ptr %58, i64 %69
  %71 = load i32, ptr %70, align 4
  %72 = load ptr, ptr %7, align 8
  %73 = getelementptr inbounds %"struct.SortedTreeNodes::SliceTableData", ptr %72, i32 0, i32 0
  %74 = load ptr, ptr %73, align 8
  %75 = load i32, ptr %16, align 4
  %76 = sext i32 %75 to i64
  %77 = getelementptr inbounds %"struct.SortedTreeNodes::_Indices", ptr %74, i64 %76
  %78 = load i32, ptr %17, align 4
  %79 = invoke noundef nonnull align 4 dereferenceable(4) ptr @_ZN15SortedTreeNodes8_IndicesILi4EEixEi(ptr noundef nonnull align 4 dereferenceable(16) %77, i32 noundef %78)
          to label %80 unwind label %160

80:                                               ; preds = %67
  store i32 %71, ptr %79, align 4
  br label %81

81:                                               ; preds = %80
  %82 = load i32, ptr %17, align 4
  %83 = add i32 %82, 1
  store i32 %83, ptr %17, align 4
  br label %52, !llvm.loop !47

84:                                               ; preds = %52
  store i32 0, ptr %18, align 4
  br label %85

85:                                               ; preds = %114, %84
  %86 = load i32, ptr %18, align 4
  %87 = icmp ult i32 %86, 4
  br i1 %87, label %88, label %117

88:                                               ; preds = %85
  %89 = load ptr, ptr %7, align 8
  %90 = getelementptr inbounds %"struct.SortedTreeNodes::SliceTableData", ptr %89, i32 0, i32 9
  %91 = load ptr, ptr %90, align 8
  %92 = load ptr, ptr %7, align 8
  %93 = getelementptr inbounds %"struct.SortedTreeNodes::SliceTableData", ptr %92, i32 0, i32 1
  %94 = load ptr, ptr %93, align 8
  %95 = load i32, ptr %16, align 4
  %96 = sext i32 %95 to i64
  %97 = getelementptr inbounds %"struct.SortedTreeNodes::_Indices", ptr %94, i64 %96
  %98 = load i32, ptr %18, align 4
  %99 = invoke noundef nonnull align 4 dereferenceable(4) ptr @_ZN15SortedTreeNodes8_IndicesILi4EEixEi(ptr noundef nonnull align 4 dereferenceable(16) %97, i32 noundef %98)
          to label %100 unwind label %160

100:                                              ; preds = %88
  %101 = load i32, ptr %99, align 4
  %102 = sext i32 %101 to i64
  %103 = getelementptr inbounds i32, ptr %91, i64 %102
  %104 = load i32, ptr %103, align 4
  %105 = load ptr, ptr %7, align 8
  %106 = getelementptr inbounds %"struct.SortedTreeNodes::SliceTableData", ptr %105, i32 0, i32 1
  %107 = load ptr, ptr %106, align 8
  %108 = load i32, ptr %16, align 4
  %109 = sext i32 %108 to i64
  %110 = getelementptr inbounds %"struct.SortedTreeNodes::_Indices", ptr %107, i64 %109
  %111 = load i32, ptr %18, align 4
  %112 = invoke noundef nonnull align 4 dereferenceable(4) ptr @_ZN15SortedTreeNodes8_IndicesILi4EEixEi(ptr noundef nonnull align 4 dereferenceable(16) %110, i32 noundef %111)
          to label %113 unwind label %160

113:                                              ; preds = %100
  store i32 %104, ptr %112, align 4
  br label %114

114:                                              ; preds = %113
  %115 = load i32, ptr %18, align 4
  %116 = add i32 %115, 1
  store i32 %116, ptr %18, align 4
  br label %85, !llvm.loop !48

117:                                              ; preds = %85
  store i32 0, ptr %19, align 4
  br label %118

118:                                              ; preds = %147, %117
  %119 = load i32, ptr %19, align 4
  %120 = icmp ult i32 %119, 1
  br i1 %120, label %121, label %150

121:                                              ; preds = %118
  %122 = load ptr, ptr %7, align 8
  %123 = getelementptr inbounds %"struct.SortedTreeNodes::SliceTableData", ptr %122, i32 0, i32 10
  %124 = load ptr, ptr %123, align 8
  %125 = load ptr, ptr %7, align 8
  %126 = getelementptr inbounds %"struct.SortedTreeNodes::SliceTableData", ptr %125, i32 0, i32 2
  %127 = load ptr, ptr %126, align 8
  %128 = load i32, ptr %16, align 4
  %129 = sext i32 %128 to i64
  %130 = getelementptr inbounds %"struct.SortedTreeNodes::_Indices.23", ptr %127, i64 %129
  %131 = load i32, ptr %19, align 4
  %132 = invoke noundef nonnull align 4 dereferenceable(4) ptr @_ZN15SortedTreeNodes8_IndicesILi1EEixEi(ptr noundef nonnull align 4 dereferenceable(4) %130, i32 noundef %131)
          to label %133 unwind label %160

133:                                              ; preds = %121
  %134 = load i32, ptr %132, align 4
  %135 = sext i32 %134 to i64
  %136 = getelementptr inbounds i32, ptr %124, i64 %135
  %137 = load i32, ptr %136, align 4
  %138 = load ptr, ptr %7, align 8
  %139 = getelementptr inbounds %"struct.SortedTreeNodes::SliceTableData", ptr %138, i32 0, i32 2
  %140 = load ptr, ptr %139, align 8
  %141 = load i32, ptr %16, align 4
  %142 = sext i32 %141 to i64
  %143 = getelementptr inbounds %"struct.SortedTreeNodes::_Indices.23", ptr %140, i64 %142
  %144 = load i32, ptr %19, align 4
  %145 = invoke noundef nonnull align 4 dereferenceable(4) ptr @_ZN15SortedTreeNodes8_IndicesILi1EEixEi(ptr noundef nonnull align 4 dereferenceable(4) %143, i32 noundef %144)
          to label %146 unwind label %160

146:                                              ; preds = %133
  store i32 %137, ptr %145, align 4
  br label %147

147:                                              ; preds = %146
  %148 = load i32, ptr %19, align 4
  %149 = add i32 %148, 1
  store i32 %149, ptr %19, align 4
  br label %118, !llvm.loop !49

150:                                              ; preds = %118
  br label %151

151:                                              ; preds = %150
  br label %152

152:                                              ; preds = %151
  %153 = load i32, ptr %8, align 4
  %154 = add nsw i32 %153, 1
  store i32 %154, ptr %8, align 4
  br label %44

155:                                              ; preds = %44
  br label %156

156:                                              ; preds = %155
  %157 = load ptr, ptr %4, align 8
  %158 = load i32, ptr %157, align 4
  call void @__kmpc_for_static_fini(ptr @1, i32 %158)
  br label %159

159:                                              ; preds = %156, %3
  ret void

160:                                              ; preds = %133, %121, %100, %88, %67, %55
  %161 = landingpad { ptr, i32 }
          catch ptr null
  %162 = extractvalue { ptr, i32 } %161, 0
  call void @__clang_call_terminate(ptr %162) #27
  unreachable
}