; Function Attrs: norecurse nounwind uwtable
define internal void @_ZNK15SortedTreeNodes17setSliceTableDataERNS_14SliceTableDataEiii.omp_outlined.11(ptr noalias nocapture noundef readonly %0, ptr noalias nocapture readnone %1, ptr nocapture noundef nonnull readonly align 8 dereferenceable(72) %2) #23 personality ptr @__gxx_personality_v0 {
  %4 = alloca i32, align 4
  %5 = alloca i32, align 4
  %6 = alloca i32, align 4
  %7 = alloca i32, align 4
  %8 = getelementptr inbounds i8, ptr %2, i64 40
  %9 = load i32, ptr %8, align 8
  %10 = icmp sgt i32 %9, 0
  br i1 %10, label %11, label %49

11:                                               ; preds = %3
  %12 = add nsw i32 %9, -1
  store i32 0, ptr %4, align 4
  store i32 %12, ptr %5, align 4
  store i32 1, ptr %6, align 4
  store i32 0, ptr %7, align 4
  %13 = load i32, ptr %0, align 4
  call void @__kmpc_for_static_init_4(ptr nonnull @1, i32 %13, i32 34, ptr nonnull %7, ptr nonnull %4, ptr nonnull %5, ptr nonnull %6, i32 1, i32 1)
  %14 = load i32, ptr %5, align 4
  %15 = call i32 @llvm.smin.i32(i32 %14, i32 %12)
  store i32 %15, ptr %5, align 4
  %16 = load i32, ptr %4, align 4
  %.not44 = icmp sgt i32 %16, %15
  br i1 %.not44, label %._crit_edge, label %.preheader41.lr.ph

.preheader41.lr.ph:                               ; preds = %11
  %17 = getelementptr inbounds i8, ptr %2, i64 48
  %18 = getelementptr inbounds i8, ptr %2, i64 56
  %19 = getelementptr inbounds i8, ptr %2, i64 8
  %20 = getelementptr inbounds i8, ptr %2, i64 64
  %21 = getelementptr inbounds i8, ptr %2, i64 16
  %22 = sext i32 %16 to i64
  br label %.preheader41

.preheader41:                                     ; preds = %.preheader41.lr.ph, %.critedge
  %indvars.iv51 = phi i64 [ %22, %.preheader41.lr.ph ], [ %indvars.iv.next52, %.critedge ]
  br label %23

23:                                               ; preds = %.preheader41, %23
  %indvars.iv = phi i64 [ 0, %.preheader41 ], [ %indvars.iv.next, %23 ]
  %24 = load ptr, ptr %17, align 8
  %25 = load ptr, ptr %2, align 8
  %26 = getelementptr inbounds %"struct.SortedTreeNodes::_Indices", ptr %25, i64 %indvars.iv51
  %27 = getelementptr inbounds [4 x i32], ptr %26, i64 0, i64 %indvars.iv
  %28 = load i32, ptr %27, align 4
  %29 = sext i32 %28 to i64
  %30 = getelementptr inbounds i32, ptr %24, i64 %29
  %31 = load i32, ptr %30, align 4
  store i32 %31, ptr %27, align 4
  %indvars.iv.next = add nuw nsw i64 %indvars.iv, 1
  %exitcond.not = icmp eq i64 %indvars.iv.next, 4
  br i1 %exitcond.not, label %.preheader, label %23, !llvm.loop !47

.preheader:                                       ; preds = %23, %.preheader
  %indvars.iv47 = phi i64 [ %indvars.iv.next48, %.preheader ], [ 0, %23 ]
  %32 = load ptr, ptr %18, align 8
  %33 = load ptr, ptr %19, align 8
  %34 = getelementptr inbounds %"struct.SortedTreeNodes::_Indices", ptr %33, i64 %indvars.iv51
  %35 = getelementptr inbounds [4 x i32], ptr %34, i64 0, i64 %indvars.iv47
  %36 = load i32, ptr %35, align 4
  %37 = sext i32 %36 to i64
  %38 = getelementptr inbounds i32, ptr %32, i64 %37
  %39 = load i32, ptr %38, align 4
  store i32 %39, ptr %35, align 4
  %indvars.iv.next48 = add nuw nsw i64 %indvars.iv47, 1
  %exitcond50.not = icmp eq i64 %indvars.iv.next48, 4
  br i1 %exitcond50.not, label %.critedge, label %.preheader, !llvm.loop !48

.critedge:                                        ; preds = %.preheader
  %40 = load ptr, ptr %20, align 8
  %41 = load ptr, ptr %21, align 8
  %42 = getelementptr inbounds %"struct.SortedTreeNodes::_Indices.23", ptr %41, i64 %indvars.iv51
  %43 = load i32, ptr %42, align 4
  %44 = sext i32 %43 to i64
  %45 = getelementptr inbounds i32, ptr %40, i64 %44
  %46 = load i32, ptr %45, align 4
  store i32 %46, ptr %42, align 4
  %indvars.iv.next52 = add nsw i64 %indvars.iv51, 1
  %47 = load i32, ptr %5, align 4
  %48 = sext i32 %47 to i64
  %.not.not = icmp slt i64 %indvars.iv51, %48
  br i1 %.not.not, label %.preheader41, label %._crit_edge

._crit_edge:                                      ; preds = %.critedge, %11
  call void @__kmpc_for_static_fini(ptr nonnull @1, i32 %13)
  br label %49

49:                                               ; preds = %._crit_edge, %3
  ret void
}